target datalayout = "e-m:e-p270:32:32-p271:32:32-p272:64:64-i64:64-i128:128-f80:128-n8:16:32:64-S128"
target triple = "x86_64-pc-linux-gnu"

; Function Attrs: nounwind uwtable
define internal i32 @zueci_big5_u(ptr noundef %0, i32 noundef %1, i32 noundef %2, ptr noundef %3) #0 {
  %5 = alloca i32, align 4
  %6 = alloca ptr, align 8
  %7 = alloca i32, align 4
  %8 = alloca i32, align 4
  %9 = alloca ptr, align 8
  %10 = alloca i8, align 1
  %11 = alloca i8, align 1
  %12 = alloca i32, align 4
  %13 = alloca i32, align 4
  store ptr %0, ptr %6, align 8
  store i32 %1, ptr %7, align 4
  store i32 %2, ptr %8, align 4
  store ptr %3, ptr %9, align 8
  %14 = load ptr, ptr %6, align 8
  %15 = getelementptr inbounds i8, ptr %14, i64 0
  %16 = load i8, ptr %15, align 1
  store i8 %16, ptr %10, align 1
  %17 = load i8, ptr %10, align 1
  %18 = zext i8 %17 to i32
  %19 = icmp slt i32 %18, 128
  br i1 %19, label %20, label %24

20:                                               ; preds = %4
  %21 = load i8, ptr %10, align 1
  %22 = zext i8 %21 to i32
  %23 = load ptr, ptr %9, align 8
  store i32 %22, ptr %23, align 4
  store i32 1, ptr %5, align 4
  br label %93

24:                                               ; preds = %4
  %25 = load i32, ptr %7, align 4
  %26 = icmp ult i32 %25, 2
  br i1 %26, label %39, label %27

27:                                               ; preds = %24
  %28 = load i8, ptr %10, align 1
  %29 = zext i8 %28 to i32
  %30 = icmp slt i32 %29, 161
  br i1 %30, label %39, label %31

31:                                               ; preds = %27
  %32 = load i8, ptr %10, align 1
  %33 = zext i8 %32 to i32
  %34 = icmp eq i32 %33, 200
  br i1 %34, label %39, label %35

35:                                               ; preds = %31
  %36 = load i8, ptr %10, align 1
  %37 = zext i8 %36 to i32
  %38 = icmp sgt i32 %37, 249
  br i1 %38, label %39, label %40

39:                                               ; preds = %35, %31, %27, %24
  store i32 0, ptr %5, align 4
  br label %93

40:                                               ; preds = %35
  %41 = load ptr, ptr %6, align 8
  %42 = getelementptr inbounds i8, ptr %41, i64 1
  %43 = load i8, ptr %42, align 1
  store i8 %43, ptr %11, align 1
  %44 = load i8, ptr %11, align 1
  %45 = zext i8 %44 to i32
  %46 = icmp slt i32 %45, 64
  br i1 %46, label %59, label %47

47:                                               ; preds = %40
  %48 = load i8, ptr %11, align 1
  %49 = zext i8 %48 to i32
  %50 = icmp sgt i32 %49, 126
  br i1 %50, label %51, label %55

51:                                               ; preds = %47
  %52 = load i8, ptr %11, align 1
  %53 = zext i8 %52 to i32
  %54 = icmp slt i32 %53, 161
  br i1 %54, label %59, label %55

55:                                               ; preds = %51, %47
  %56 = load i8, ptr %11, align 1
  %57 = zext i8 %56 to i32
  %58 = icmp eq i32 %57, 255
  br i1 %58, label %59, label %60

59:                                               ; preds = %55, %51, %40
  store i32 0, ptr %5, align 4
  br label %93

60:                                               ; preds = %55
  %61 = load i8, ptr %10, align 1
  %62 = zext i8 %61 to i32
  %63 = sub nsw i32 %62, 161
  %64 = load i8, ptr %10, align 1
  %65 = zext i8 %64 to i32
  %66 = icmp sgt i32 %65, 200
  %67 = zext i1 %66 to i32
  %68 = sub nsw i32 %63, %67
  %69 = mul nsw i32 157, %68
  %70 = load i8, ptr %11, align 1
  %71 = zext i8 %70 to i32
  %72 = add nsw i32 %69, %71
  %73 = sub nsw i32 %72, 64
  %74 = load i8, ptr %11, align 1
  %75 = zext i8 %74 to i32
  %76 = icmp sgt i32 %75, 126
  %77 = zext i1 %76 to i32
  %78 = mul nsw i32 %77, 34
  %79 = sub nsw i32 %73, %78
  store i32 %79, ptr %12, align 4
  %80 = load i32, ptr %12, align 4
  %81 = icmp slt i32 %80, 13775
  br i1 %81, label %82, label %92

82:                                               ; preds = %60
  %83 = load i32, ptr %12, align 4
  %84 = sext i32 %83 to i64
  %85 = getelementptr inbounds [13775 x i16], ptr @zueci_big5_mb_u, i64 0, i64 %84
  %86 = load i16, ptr %85, align 2
  %87 = zext i16 %86 to i32
  store i32 %87, ptr %13, align 4
  %88 = icmp ne i32 %87, 0
  br i1 %88, label %89, label %92

89:                                               ; preds = %82
  %90 = load i32, ptr %13, align 4
  %91 = load ptr, ptr %9, align 8
  store i32 %90, ptr %91, align 4
  store i32 2, ptr %5, align 4
  br label %93

92:                                               ; preds = %82, %60
  store i32 0, ptr %5, align 4
  br label %93

93:                                               ; preds = %92, %89, %59, %39, %20
  %94 = load i32, ptr %5, align 4
  ret i32 %94
}