; Function Attrs: mustprogress nofree norecurse nosync nounwind willreturn memory(argmem: readwrite) uwtable
define internal noundef i32 @zueci_big5_u(ptr nocapture noundef readonly %0, i32 noundef %1, i32 %2, ptr nocapture noundef writeonly %3) #6 {
  %5 = load i8, ptr %0, align 1
  %6 = zext i8 %5 to i32
  %7 = icmp sgt i8 %5, -1
  br i1 %7, label %.sink.split, label %8

8:                                                ; preds = %4
  %9 = icmp ult i32 %1, 2
  %10 = icmp ult i8 %5, -95
  %or.cond = or i1 %9, %10
  %11 = icmp eq i8 %5, -56
  %or.cond5 = or i1 %11, %or.cond
  %12 = icmp ugt i8 %5, -7
  %or.cond8 = or i1 %12, %or.cond5
  br i1 %or.cond8, label %37, label %13

13:                                               ; preds = %8
  %14 = getelementptr inbounds i8, ptr %0, i64 1
  %15 = load i8, ptr %14, align 1
  %16 = zext i8 %15 to i32
  %17 = icmp ult i8 %15, 64
  br i1 %17, label %37, label %18

18:                                               ; preds = %13
  %19 = add i8 %15, -127
  %or.cond11 = icmp ult i8 %19, 34
  %20 = icmp eq i8 %15, -1
  %or.cond14 = or i1 %20, %or.cond11
  br i1 %or.cond14, label %37, label %21

21:                                               ; preds = %18
  %22 = icmp ugt i8 %15, 126
  %23 = add nsw i32 %6, -161
  %24 = icmp ugt i8 %5, -56
  %.neg = sext i1 %24 to i32
  %25 = add nsw i32 %23, %.neg
  %26 = mul nsw i32 %25, 157
  %.neg39 = select i1 %22, i32 -34, i32 0
  %27 = add nsw i32 %26, -64
  %28 = add nsw i32 %27, %16
  %29 = add nsw i32 %28, %.neg39
  %30 = icmp slt i32 %29, 13775
  br i1 %30, label %31, label %37

31:                                               ; preds = %21
  %32 = sext i32 %29 to i64
  %33 = getelementptr inbounds [13775 x i16], ptr @zueci_big5_mb_u, i64 0, i64 %32
  %34 = load i16, ptr %33, align 2
  %.not = icmp eq i16 %34, 0
  br i1 %.not, label %37, label %35

35:                                               ; preds = %31
  %36 = zext i16 %34 to i32
  br label %.sink.split

.sink.split:                                      ; preds = %4, %35
  %.sink = phi i32 [ %36, %35 ], [ %6, %4 ]
  %.0.ph = phi i32 [ 2, %35 ], [ 1, %4 ]
  store i32 %.sink, ptr %3, align 4
  br label %37

37:                                               ; preds = %.sink.split, %21, %31, %13, %18, %8
  %.0 = phi i32 [ 0, %8 ], [ 0, %18 ], [ 0, %13 ], [ 0, %31 ], [ 0, %21 ], [ %.0.ph, %.sink.split ]
  ret i32 %.0
}